target datalayout = "e-m:e-p270:32:32-p271:32:32-p272:64:64-i64:64-i128:128-f80:128-n8:16:32:64-S128"
target triple = "x86_64-pc-linux-gnu"

%struct.mbedtls_ssl_context = type { ptr, i32, i32, i32, i32, i32, ptr, ptr, ptr, ptr, ptr, ptr, ptr, ptr, ptr, ptr, ptr, ptr, ptr, ptr, ptr, ptr, ptr, ptr, ptr, ptr, ptr, ptr, ptr, ptr, ptr, ptr, ptr, i32, i64, i64, i16, i64, i64, i64, i64, i32, i32, i8, i8, i32, i8, ptr, ptr, ptr, ptr, ptr, ptr, ptr, i32, i64, i64, [8 x i8], i16, ptr, ptr, ptr, i64, i32, i64, [12 x i8], [12 x i8], [32 x i8], i8, i8, ptr, ptr, %union.mbedtls_ssl_user_data_t }
%union.mbedtls_ssl_user_data_t = type { i64 }
%struct.mbedtls_ssl_config = type { i32, i32, i8, i8, i8, i8, i8, i8, i8, i8, i8, i8, i16, i8, i8, i8, ptr, i32, ptr, ptr, ptr, ptr, ptr, ptr, ptr, ptr, ptr, ptr, ptr, ptr, ptr, ptr, ptr, ptr, ptr, ptr, ptr, i64, ptr, ptr, ptr, ptr, ptr, ptr, ptr, ptr, %struct.mbedtls_mpi, %struct.mbedtls_mpi, ptr, i64, ptr, i64, ptr, i32, i32, i32, i32, [8 x i8], i32, i32, %union.mbedtls_ssl_user_data_t, ptr, ptr }
%struct.mbedtls_mpi = type { ptr, i16, i16 }

@.str = private unnamed_addr constant [121 x i8] c"generated/home/dtcxzyw/WorkSpace/Projects/compilers/llvm-opt-benchmark/bench/lief/bench_build/mbed_src/library/ssl_msg.c\00", align 1
@.str.104 = private unnamed_addr constant [30 x i8] c"invalid CCS message, len: %zu\00", align 1
@.str.105 = private unnamed_addr constant [35 x i8] c"invalid CCS message, content: %02x\00", align 1
@.str.106 = private unnamed_addr constant [44 x i8] c"dropping ChangeCipherSpec outside handshake\00", align 1
@.str.107 = private unnamed_addr constant [50 x i8] c"received out-of-order ChangeCipherSpec - remember\00", align 1
@.str.108 = private unnamed_addr constant [54 x i8] c"Ignore ChangeCipherSpec in TLS 1.3 compatibility mode\00", align 1
@.str.109 = private unnamed_addr constant [32 x i8] c"invalid alert message, len: %zu\00", align 1
@.str.110 = private unnamed_addr constant [36 x i8] c"got an alert message, type: [%u:%u]\00", align 1
@.str.111 = private unnamed_addr constant [34 x i8] c"is a fatal alert message (msg %d)\00", align 1
@.str.112 = private unnamed_addr constant [26 x i8] c"is a close notify message\00", align 1
@.str.113 = private unnamed_addr constant [28 x i8] c"is a no renegotiation alert\00", align 1
@.str.114 = private unnamed_addr constant [36 x i8] c"dropping unexpected ApplicationData\00", align 1

; Function Attrs: inlinehint nounwind uwtable
define internal i32 @mbedtls_ssl_is_handshake_over(ptr noundef %0) #4 {
  %2 = alloca ptr, align 8
  store ptr %0, ptr %2, align 8, !tbaa !3
  %3 = load ptr, ptr %2, align 8, !tbaa !3
  %4 = getelementptr inbounds nuw %struct.mbedtls_ssl_context, ptr %3, i32 0, i32 1
  %5 = load i32, ptr %4, align 8, !tbaa !93
  %6 = icmp sge i32 %5, 27
  %7 = zext i1 %6 to i32
  ret i32 %7
}

; Function Attrs: nounwind uwtable
define hidden i32 @mbedtls_ssl_handle_message_type(ptr noundef %0) #0 {
  %2 = alloca i32, align 4
  %3 = alloca ptr, align 8
  %4 = alloca i32, align 4
  %5 = alloca i32, align 4
  store ptr %0, ptr %3, align 8, !tbaa !3
  call void @llvm.lifetime.start.p0(i64 4, ptr %4) #11
  store i32 -110, ptr %4, align 4, !tbaa !8
  %6 = load ptr, ptr %3, align 8, !tbaa !3
  %7 = getelementptr inbounds nuw %struct.mbedtls_ssl_context, ptr %6, i32 0, i32 33
  %8 = load i32, ptr %7, align 8, !tbaa !134
  %9 = icmp eq i32 %8, 22
  br i1 %9, label %10, label %17

10:                                               ; preds = %1
  %11 = load ptr, ptr %3, align 8, !tbaa !3
  %12 = call i32 @mbedtls_ssl_prepare_handshake_record(ptr noundef %11)
  store i32 %12, ptr %4, align 4, !tbaa !8
  %13 = icmp ne i32 %12, 0
  br i1 %13, label %14, label %16

14:                                               ; preds = %10
  %15 = load i32, ptr %4, align 4, !tbaa !8
  store i32 %15, ptr %2, align 4
  store i32 1, ptr %5, align 4
  br label %206

16:                                               ; preds = %10
  br label %17

17:                                               ; preds = %16, %1
  %18 = load ptr, ptr %3, align 8, !tbaa !3
  %19 = getelementptr inbounds nuw %struct.mbedtls_ssl_context, ptr %18, i32 0, i32 33
  %20 = load i32, ptr %19, align 8, !tbaa !134
  %21 = icmp eq i32 %20, 20
  br i1 %21, label %22, label %83

22:                                               ; preds = %17
  %23 = load ptr, ptr %3, align 8, !tbaa !3
  %24 = getelementptr inbounds nuw %struct.mbedtls_ssl_context, ptr %23, i32 0, i32 34
  %25 = load i64, ptr %24, align 8, !tbaa !143
  %26 = icmp ne i64 %25, 1
  br i1 %26, label %27, label %32

27:                                               ; preds = %22
  %28 = load ptr, ptr %3, align 8, !tbaa !3
  %29 = load ptr, ptr %3, align 8, !tbaa !3
  %30 = getelementptr inbounds nuw %struct.mbedtls_ssl_context, ptr %29, i32 0, i32 34
  %31 = load i64, ptr %30, align 8, !tbaa !143
  call void (ptr, i32, ptr, i32, ptr, ...) @mbedtls_debug_print_msg(ptr noundef %28, i32 noundef 1, ptr noundef @.str, i32 noundef 5043, ptr noundef @.str.104, i64 noundef %31)
  store i32 -29184, ptr %2, align 4
  store i32 1, ptr %5, align 4
  br label %206

32:                                               ; preds = %22
  %33 = load ptr, ptr %3, align 8, !tbaa !3
  %34 = getelementptr inbounds nuw %struct.mbedtls_ssl_context, ptr %33, i32 0, i32 31
  %35 = load ptr, ptr %34, align 8, !tbaa !135
  %36 = getelementptr inbounds i8, ptr %35, i64 0
  %37 = load i8, ptr %36, align 1, !tbaa !38
  %38 = zext i8 %37 to i32
  %39 = icmp ne i32 %38, 1
  br i1 %39, label %40, label %48

40:                                               ; preds = %32
  %41 = load ptr, ptr %3, align 8, !tbaa !3
  %42 = load ptr, ptr %3, align 8, !tbaa !3
  %43 = getelementptr inbounds nuw %struct.mbedtls_ssl_context, ptr %42, i32 0, i32 31
  %44 = load ptr, ptr %43, align 8, !tbaa !135
  %45 = getelementptr inbounds i8, ptr %44, i64 0
  %46 = load i8, ptr %45, align 1, !tbaa !38
  %47 = zext i8 %46 to i32
  call void (ptr, i32, ptr, i32, ptr, ...) @mbedtls_debug_print_msg(ptr noundef %41, i32 noundef 1, ptr noundef @.str, i32 noundef 5049, ptr noundef @.str.105, i32 noundef %47)
  store i32 -29184, ptr %2, align 4
  store i32 1, ptr %5, align 4
  br label %206

48:                                               ; preds = %32
  %49 = load ptr, ptr %3, align 8, !tbaa !3
  %50 = getelementptr inbounds nuw %struct.mbedtls_ssl_context, ptr %49, i32 0, i32 0
  %51 = load ptr, ptr %50, align 8, !tbaa !23
  %52 = getelementptr inbounds nuw %struct.mbedtls_ssl_config, ptr %51, i32 0, i32 3
  %53 = load i8, ptr %52, align 1, !tbaa !24
  %54 = zext i8 %53 to i32
  %55 = icmp eq i32 %54, 1
  br i1 %55, label %56, label %75

56:                                               ; preds = %48
  %57 = load ptr, ptr %3, align 8, !tbaa !3
  %58 = getelementptr inbounds nuw %struct.mbedtls_ssl_context, ptr %57, i32 0, i32 1
  %59 = load i32, ptr %58, align 8, !tbaa !93
  %60 = icmp ne i32 %59, 10
  br i1 %60, label %61, label %75

61:                                               ; preds = %56
  %62 = load ptr, ptr %3, align 8, !tbaa !3
  %63 = getelementptr inbounds nuw %struct.mbedtls_ssl_context, ptr %62, i32 0, i32 1
  %64 = load i32, ptr %63, align 8, !tbaa !93
  %65 = icmp ne i32 %64, 12
  br i1 %65, label %66, label %75

66:                                               ; preds = %61
  %67 = load ptr, ptr %3, align 8, !tbaa !3
  %68 = getelementptr inbounds nuw %struct.mbedtls_ssl_context, ptr %67, i32 0, i32 16
  %69 = load ptr, ptr %68, align 8, !tbaa !81
  %70 = icmp eq ptr %69, null
  br i1 %70, label %71, label %73

71:                                               ; preds = %66
  %72 = load ptr, ptr %3, align 8, !tbaa !3
  call void (ptr, i32, ptr, i32, ptr, ...) @mbedtls_debug_print_msg(ptr noundef %72, i32 noundef 1, ptr noundef @.str, i32 noundef 5058, ptr noundef @.str.106)
  store i32 -26368, ptr %2, align 4
  store i32 1, ptr %5, align 4
  br label %206

73:                                               ; preds = %66
  %74 = load ptr, ptr %3, align 8, !tbaa !3
  call void (ptr, i32, ptr, i32, ptr, ...) @mbedtls_debug_print_msg(ptr noundef %74, i32 noundef 1, ptr noundef @.str, i32 noundef 5062, ptr noundef @.str.107)
  store i32 -25728, ptr %2, align 4
  store i32 1, ptr %5, align 4
  br label %206

75:                                               ; preds = %61, %56, %48
  %76 = load ptr, ptr %3, align 8, !tbaa !3
  %77 = getelementptr inbounds nuw %struct.mbedtls_ssl_context, ptr %76, i32 0, i32 4
  %78 = load i32, ptr %77, align 4, !tbaa !127
  %79 = icmp eq i32 %78, 772
  br i1 %79, label %80, label %82

80:                                               ; preds = %75
  %81 = load ptr, ptr %3, align 8, !tbaa !3
  call void (ptr, i32, ptr, i32, ptr, ...) @mbedtls_debug_print_msg(ptr noundef %81, i32 noundef 1, ptr noundef @.str, i32 noundef 5071, ptr noundef @.str.108)
  store i32 -25984, ptr %2, align 4
  store i32 1, ptr %5, align 4
  br label %206

82:                                               ; preds = %75
  br label %83

83:                                               ; preds = %82, %17
  %84 = load ptr, ptr %3, align 8, !tbaa !3
  %85 = getelementptr inbounds nuw %struct.mbedtls_ssl_context, ptr %84, i32 0, i32 33
  %86 = load i32, ptr %85, align 8, !tbaa !134
  %87 = icmp eq i32 %86, 21
  br i1 %87, label %88, label %164

88:                                               ; preds = %83
  %89 = load ptr, ptr %3, align 8, !tbaa !3
  %90 = getelementptr inbounds nuw %struct.mbedtls_ssl_context, ptr %89, i32 0, i32 34
  %91 = load i64, ptr %90, align 8, !tbaa !143
  %92 = icmp ne i64 %91, 2
  br i1 %92, label %93, label %98

93:                                               ; preds = %88
  %94 = load ptr, ptr %3, align 8, !tbaa !3
  %95 = load ptr, ptr %3, align 8, !tbaa !3
  %96 = getelementptr inbounds nuw %struct.mbedtls_ssl_context, ptr %95, i32 0, i32 34
  %97 = load i64, ptr %96, align 8, !tbaa !143
  call void (ptr, i32, ptr, i32, ptr, ...) @mbedtls_debug_print_msg(ptr noundef %94, i32 noundef 1, ptr noundef @.str, i32 noundef 5088, ptr noundef @.str.109, i64 noundef %97)
  store i32 -29184, ptr %2, align 4
  store i32 1, ptr %5, align 4
  br label %206

98:                                               ; preds = %88
  %99 = load ptr, ptr %3, align 8, !tbaa !3
  %100 = load ptr, ptr %3, align 8, !tbaa !3
  %101 = getelementptr inbounds nuw %struct.mbedtls_ssl_context, ptr %100, i32 0, i32 31
  %102 = load ptr, ptr %101, align 8, !tbaa !135
  %103 = getelementptr inbounds i8, ptr %102, i64 0
  %104 = load i8, ptr %103, align 1, !tbaa !38
  %105 = zext i8 %104 to i32
  %106 = load ptr, ptr %3, align 8, !tbaa !3
  %107 = getelementptr inbounds nuw %struct.mbedtls_ssl_context, ptr %106, i32 0, i32 31
  %108 = load ptr, ptr %107, align 8, !tbaa !135
  %109 = getelementptr inbounds i8, ptr %108, i64 1
  %110 = load i8, ptr %109, align 1, !tbaa !38
  %111 = zext i8 %110 to i32
  call void (ptr, i32, ptr, i32, ptr, ...) @mbedtls_debug_print_msg(ptr noundef %99, i32 noundef 2, ptr noundef @.str, i32 noundef 5093, ptr noundef @.str.110, i32 noundef %105, i32 noundef %111)
  %112 = load ptr, ptr %3, align 8, !tbaa !3
  %113 = getelementptr inbounds nuw %struct.mbedtls_ssl_context, ptr %112, i32 0, i32 31
  %114 = load ptr, ptr %113, align 8, !tbaa !135
  %115 = getelementptr inbounds i8, ptr %114, i64 0
  %116 = load i8, ptr %115, align 1, !tbaa !38
  %117 = zext i8 %116 to i32
  %118 = icmp eq i32 %117, 2
  br i1 %118, label %119, label %127

119:                                              ; preds = %98
  %120 = load ptr, ptr %3, align 8, !tbaa !3
  %121 = load ptr, ptr %3, align 8, !tbaa !3
  %122 = getelementptr inbounds nuw %struct.mbedtls_ssl_context, ptr %121, i32 0, i32 31
  %123 = load ptr, ptr %122, align 8, !tbaa !135
  %124 = getelementptr inbounds i8, ptr %123, i64 1
  %125 = load i8, ptr %124, align 1, !tbaa !38
  %126 = zext i8 %125 to i32
  call void (ptr, i32, ptr, i32, ptr, ...) @mbedtls_debug_print_msg(ptr noundef %120, i32 noundef 1, ptr noundef @.str, i32 noundef 5100, ptr noundef @.str.111, i32 noundef %126)
  store i32 -30592, ptr %2, align 4
  store i32 1, ptr %5, align 4
  br label %206

127:                                              ; preds = %98
  %128 = load ptr, ptr %3, align 8, !tbaa !3
  %129 = getelementptr inbounds nuw %struct.mbedtls_ssl_context, ptr %128, i32 0, i32 31
  %130 = load ptr, ptr %129, align 8, !tbaa !135
  %131 = getelementptr inbounds i8, ptr %130, i64 0
  %132 = load i8, ptr %131, align 1, !tbaa !38
  %133 = zext i8 %132 to i32
  %134 = icmp eq i32 %133, 1
  br i1 %134, label %135, label %145

135:                                              ; preds = %127
  %136 = load ptr, ptr %3, align 8, !tbaa !3
  %137 = getelementptr inbounds nuw %struct.mbedtls_ssl_context, ptr %136, i32 0, i32 31
  %138 = load ptr, ptr %137, align 8, !tbaa !135
  %139 = getelementptr inbounds i8, ptr %138, i64 1
  %140 = load i8, ptr %139, align 1, !tbaa !38
  %141 = zext i8 %140 to i32
  %142 = icmp eq i32 %141, 0
  br i1 %142, label %143, label %145

143:                                              ; preds = %135
  %144 = load ptr, ptr %3, align 8, !tbaa !3
  call void (ptr, i32, ptr, i32, ptr, ...) @mbedtls_debug_print_msg(ptr noundef %144, i32 noundef 2, ptr noundef @.str, i32 noundef 5106, ptr noundef @.str.112)
  store i32 -30848, ptr %2, align 4
  store i32 1, ptr %5, align 4
  br label %206

145:                                              ; preds = %135, %127
  %146 = load ptr, ptr %3, align 8, !tbaa !3
  %147 = getelementptr inbounds nuw %struct.mbedtls_ssl_context, ptr %146, i32 0, i32 31
  %148 = load ptr, ptr %147, align 8, !tbaa !135
  %149 = getelementptr inbounds i8, ptr %148, i64 0
  %150 = load i8, ptr %149, align 1, !tbaa !38
  %151 = zext i8 %150 to i32
  %152 = icmp eq i32 %151, 1
  br i1 %152, label %153, label %163

153:                                              ; preds = %145
  %154 = load ptr, ptr %3, align 8, !tbaa !3
  %155 = getelementptr inbounds nuw %struct.mbedtls_ssl_context, ptr %154, i32 0, i32 31
  %156 = load ptr, ptr %155, align 8, !tbaa !135
  %157 = getelementptr inbounds i8, ptr %156, i64 1
  %158 = load i8, ptr %157, align 1, !tbaa !38
  %159 = zext i8 %158 to i32
  %160 = icmp eq i32 %159, 100
  br i1 %160, label %161, label %163

161:                                              ; preds = %153
  %162 = load ptr, ptr %3, align 8, !tbaa !3
  call void (ptr, i32, ptr, i32, ptr, ...) @mbedtls_debug_print_msg(ptr noundef %162, i32 noundef 2, ptr noundef @.str, i32 noundef 5113, ptr noundef @.str.113)
  store i32 0, ptr %2, align 4
  store i32 1, ptr %5, align 4
  br label %206

163:                                              ; preds = %153, %145
  store i32 -26240, ptr %2, align 4
  store i32 1, ptr %5, align 4
  br label %206

164:                                              ; preds = %83
  %165 = load ptr, ptr %3, align 8, !tbaa !3
  %166 = getelementptr inbounds nuw %struct.mbedtls_ssl_context, ptr %165, i32 0, i32 0
  %167 = load ptr, ptr %166, align 8, !tbaa !23
  %168 = getelementptr inbounds nuw %struct.mbedtls_ssl_config, ptr %167, i32 0, i32 3
  %169 = load i8, ptr %168, align 1, !tbaa !24
  %170 = zext i8 %169 to i32
  %171 = icmp eq i32 %170, 1
  br i1 %171, label %172, label %205

172:                                              ; preds = %164
  %173 = load ptr, ptr %3, align 8, !tbaa !3
  %174 = getelementptr inbounds nuw %struct.mbedtls_ssl_context, ptr %173, i32 0, i32 33
  %175 = load i32, ptr %174, align 8, !tbaa !134
  %176 = icmp eq i32 %175, 23
  br i1 %176, label %177, label %193

177:                                              ; preds = %172
  %178 = load ptr, ptr %3, align 8, !tbaa !3
  %179 = call i32 @mbedtls_ssl_is_handshake_over(ptr noundef %178)
  %180 = icmp eq i32 %179, 0
  br i1 %180, label %181, label %193

181:                                              ; preds = %177
  %182 = load ptr, ptr %3, align 8, !tbaa !3
  %183 = getelementptr inbounds nuw %struct.mbedtls_ssl_context, ptr %182, i32 0, i32 2
  %184 = load i32, ptr %183, align 4, !tbaa !95
  %185 = icmp eq i32 %184, 1
  br i1 %185, label %186, label %191

186:                                              ; preds = %181
  %187 = load ptr, ptr %3, align 8, !tbaa !3
  %188 = getelementptr inbounds nuw %struct.mbedtls_ssl_context, ptr %187, i32 0, i32 1
  %189 = load i32, ptr %188, align 8, !tbaa !93
  %190 = icmp eq i32 %189, 2
  br i1 %190, label %193, label %191

191:                                              ; preds = %186, %181
  %192 = load ptr, ptr %3, align 8, !tbaa !3
  call void (ptr, i32, ptr, i32, ptr, ...) @mbedtls_debug_print_msg(ptr noundef %192, i32 noundef 1, ptr noundef @.str, i32 noundef 5133, ptr noundef @.str.114)
  store i32 -26240, ptr %2, align 4
  store i32 1, ptr %5, align 4
  br label %206

193:                                              ; preds = %186, %177, %172
  %194 = load ptr, ptr %3, align 8, !tbaa !3
  %195 = getelementptr inbounds nuw %struct.mbedtls_ssl_context, ptr %194, i32 0, i32 16
  %196 = load ptr, ptr %195, align 8, !tbaa !81
  %197 = icmp ne ptr %196, null
  br i1 %197, label %198, label %204

198:                                              ; preds = %193
  %199 = load ptr, ptr %3, align 8, !tbaa !3
  %200 = call i32 @mbedtls_ssl_is_handshake_over(ptr noundef %199)
  %201 = icmp eq i32 %200, 1
  br i1 %201, label %202, label %204

202:                                              ; preds = %198
  %203 = load ptr, ptr %3, align 8, !tbaa !3
  call void @mbedtls_ssl_handshake_wrapup_free_hs_transform(ptr noundef %203)
  br label %204

204:                                              ; preds = %202, %198, %193
  br label %205

205:                                              ; preds = %204, %164
  store i32 0, ptr %2, align 4
  store i32 1, ptr %5, align 4
  br label %206

206:                                              ; preds = %205, %191, %163, %161, %143, %119, %93, %80, %73, %71, %40, %27, %14
  call void @llvm.lifetime.end.p0(i64 4, ptr %4) #11
  %207 = load i32, ptr %2, align 4
  ret i32 %207
}