; Function Attrs: nounwind uwtable
define hidden i32 @mbedtls_ssl_handle_message_type(ptr noundef %0) local_unnamed_addr #0 {
  %2 = getelementptr inbounds nuw i8, ptr %0, i64 248
  %3 = load i32, ptr %2, align 8, !tbaa !136
  %4 = icmp eq i32 %3, 22
  br i1 %4, label %5, label %7

5:                                                ; preds = %1
  %6 = tail call i32 @mbedtls_ssl_prepare_handshake_record(ptr noundef nonnull %0)
  %.not = icmp eq i32 %6, 0
  br i1 %.not, label %thread-pre-split, label %.thread59.thread

thread-pre-split:                                 ; preds = %5
  %.pr = load i32, ptr %2, align 8, !tbaa !136
  br label %7

7:                                                ; preds = %thread-pre-split, %1
  %8 = phi i32 [ %.pr, %thread-pre-split ], [ %3, %1 ]
  switch i32 %8, label %64 [
    i32 20, label %9
    i32 21, label %41
  ]

9:                                                ; preds = %7
  %10 = getelementptr inbounds nuw i8, ptr %0, i64 256
  %11 = load i64, ptr %10, align 8, !tbaa !142
  %.not50 = icmp eq i64 %11, 1
  br i1 %.not50, label %13, label %12

12:                                               ; preds = %9
  tail call void (ptr, i32, ptr, i32, ptr, ...) @mbedtls_debug_print_msg(ptr noundef nonnull %0, i32 noundef 1, ptr noundef nonnull @.str, i32 noundef 5043, ptr noundef nonnull @.str.104, i64 noundef %11) #19
  br label %.thread59.thread

13:                                               ; preds = %9
  %14 = getelementptr inbounds nuw i8, ptr %0, i64 232
  %15 = load ptr, ptr %14, align 8, !tbaa !137
  %16 = load i8, ptr %15, align 1, !tbaa !32
  %.not51 = icmp eq i8 %16, 1
  br i1 %.not51, label %19, label %17

17:                                               ; preds = %13
  %18 = zext i8 %16 to i32
  tail call void (ptr, i32, ptr, i32, ptr, ...) @mbedtls_debug_print_msg(ptr noundef nonnull %0, i32 noundef 1, ptr noundef nonnull @.str, i32 noundef 5049, ptr noundef nonnull @.str.105, i32 noundef %18) #19
  br label %.thread59.thread

19:                                               ; preds = %13
  %20 = load ptr, ptr %0, align 8, !tbaa !18
  %21 = getelementptr inbounds nuw i8, ptr %20, i64 9
  %22 = load i8, ptr %21, align 1, !tbaa !19
  %23 = icmp eq i8 %22, 1
  br i1 %23, label %24, label %.thread

24:                                               ; preds = %19
  %25 = getelementptr inbounds nuw i8, ptr %0, i64 8
  %26 = load i32, ptr %25, align 8, !tbaa !74
  switch i32 %26, label %27 [
    i32 10, label %33
    i32 12, label %33
  ]

27:                                               ; preds = %24
  %28 = getelementptr inbounds nuw i8, ptr %0, i64 112
  %29 = load ptr, ptr %28, align 8, !tbaa !75
  %30 = icmp eq ptr %29, null
  br i1 %30, label %31, label %32

31:                                               ; preds = %27
  tail call void (ptr, i32, ptr, i32, ptr, ...) @mbedtls_debug_print_msg(ptr noundef nonnull %0, i32 noundef 1, ptr noundef nonnull @.str, i32 noundef 5058, ptr noundef nonnull @.str.106) #19
  br label %.thread59.thread

32:                                               ; preds = %27
  tail call void (ptr, i32, ptr, i32, ptr, ...) @mbedtls_debug_print_msg(ptr noundef nonnull %0, i32 noundef 1, ptr noundef nonnull @.str, i32 noundef 5062, ptr noundef nonnull @.str.107) #19
  br label %.thread59.thread

33:                                               ; preds = %24, %24
  %34 = getelementptr inbounds nuw i8, ptr %0, i64 20
  %35 = load i32, ptr %34, align 4, !tbaa !122
  %36 = icmp eq i32 %35, 772
  br i1 %36, label %40, label %.thread60

.thread:                                          ; preds = %19
  %37 = getelementptr inbounds nuw i8, ptr %0, i64 20
  %38 = load i32, ptr %37, align 4, !tbaa !122
  %39 = icmp eq i32 %38, 772
  br i1 %39, label %40, label %.thread59.thread

40:                                               ; preds = %.thread, %33
  tail call void (ptr, i32, ptr, i32, ptr, ...) @mbedtls_debug_print_msg(ptr noundef nonnull %0, i32 noundef 1, ptr noundef nonnull @.str, i32 noundef 5071, ptr noundef nonnull @.str.108) #19
  br label %.thread59.thread

41:                                               ; preds = %7
  %42 = getelementptr inbounds nuw i8, ptr %0, i64 256
  %43 = load i64, ptr %42, align 8, !tbaa !142
  %.not56 = icmp eq i64 %43, 2
  br i1 %.not56, label %45, label %44

44:                                               ; preds = %41
  tail call void (ptr, i32, ptr, i32, ptr, ...) @mbedtls_debug_print_msg(ptr noundef nonnull %0, i32 noundef 1, ptr noundef nonnull @.str, i32 noundef 5088, ptr noundef nonnull @.str.109, i64 noundef %43) #19
  br label %.thread59.thread

45:                                               ; preds = %41
  %46 = getelementptr inbounds nuw i8, ptr %0, i64 232
  %47 = load ptr, ptr %46, align 8, !tbaa !137
  %48 = load i8, ptr %47, align 1, !tbaa !32
  %49 = zext i8 %48 to i32
  %50 = getelementptr inbounds nuw i8, ptr %47, i64 1
  %51 = load i8, ptr %50, align 1, !tbaa !32
  %52 = zext i8 %51 to i32
  tail call void (ptr, i32, ptr, i32, ptr, ...) @mbedtls_debug_print_msg(ptr noundef nonnull %0, i32 noundef 2, ptr noundef nonnull @.str, i32 noundef 5093, ptr noundef nonnull @.str.110, i32 noundef %49, i32 noundef %52) #19
  %53 = load ptr, ptr %46, align 8, !tbaa !137
  %54 = load i8, ptr %53, align 1, !tbaa !32
  switch i8 %54, label %.thread59.thread [
    i8 2, label %55
    i8 1, label %59
  ]

55:                                               ; preds = %45
  %56 = getelementptr inbounds nuw i8, ptr %53, i64 1
  %57 = load i8, ptr %56, align 1, !tbaa !32
  %58 = zext i8 %57 to i32
  tail call void (ptr, i32, ptr, i32, ptr, ...) @mbedtls_debug_print_msg(ptr noundef nonnull %0, i32 noundef 1, ptr noundef nonnull @.str, i32 noundef 5100, ptr noundef nonnull @.str.111, i32 noundef %58) #19
  br label %.thread59.thread

59:                                               ; preds = %45
  %60 = getelementptr inbounds nuw i8, ptr %53, i64 1
  %61 = load i8, ptr %60, align 1, !tbaa !32
  switch i8 %61, label %.thread59.thread [
    i8 0, label %62
    i8 100, label %63
  ]

62:                                               ; preds = %59
  tail call void (ptr, i32, ptr, i32, ptr, ...) @mbedtls_debug_print_msg(ptr noundef nonnull %0, i32 noundef 2, ptr noundef nonnull @.str, i32 noundef 5106, ptr noundef nonnull @.str.112) #19
  br label %.thread59.thread

63:                                               ; preds = %59
  tail call void (ptr, i32, ptr, i32, ptr, ...) @mbedtls_debug_print_msg(ptr noundef nonnull %0, i32 noundef 2, ptr noundef nonnull @.str, i32 noundef 5113, ptr noundef nonnull @.str.113) #19
  br label %.thread59.thread

64:                                               ; preds = %7
  %65 = load ptr, ptr %0, align 8, !tbaa !18
  %66 = getelementptr inbounds nuw i8, ptr %65, i64 9
  %67 = load i8, ptr %66, align 1, !tbaa !19
  %68 = icmp eq i8 %67, 1
  br i1 %68, label %69, label %.thread59.thread

69:                                               ; preds = %64
  %70 = icmp eq i32 %8, 23
  br i1 %70, label %71, label %.thread60

71:                                               ; preds = %69
  %72 = getelementptr i8, ptr %0, i64 8
  %.val57 = load i32, ptr %72, align 8, !tbaa !74
  %73 = icmp slt i32 %.val57, 27
  br i1 %73, label %74, label %.thread60

74:                                               ; preds = %71
  %75 = getelementptr inbounds nuw i8, ptr %0, i64 12
  %76 = load i32, ptr %75, align 4, !tbaa !79
  %77 = icmp eq i32 %76, 1
  %78 = icmp eq i32 %.val57, 2
  %or.cond = and i1 %78, %77
  br i1 %or.cond, label %.thread60, label %79

79:                                               ; preds = %74
  tail call void (ptr, i32, ptr, i32, ptr, ...) @mbedtls_debug_print_msg(ptr noundef nonnull %0, i32 noundef 1, ptr noundef nonnull @.str, i32 noundef 5133, ptr noundef nonnull @.str.114) #19
  br label %.thread59.thread

.thread60:                                        ; preds = %33, %74, %71, %69
  %80 = getelementptr inbounds nuw i8, ptr %0, i64 112
  %81 = load ptr, ptr %80, align 8, !tbaa !75
  %.not54 = icmp eq ptr %81, null
  br i1 %.not54, label %.thread59.thread, label %82

82:                                               ; preds = %.thread60
  %83 = getelementptr i8, ptr %0, i64 8
  %.val = load i32, ptr %83, align 8, !tbaa !74
  %84 = icmp slt i32 %.val, 27
  br i1 %84, label %.thread59.thread, label %85

85:                                               ; preds = %82
  tail call void @mbedtls_ssl_handshake_wrapup_free_hs_transform(ptr noundef nonnull %0) #19
  br label %.thread59.thread

.thread59.thread:                                 ; preds = %59, %.thread, %45, %64, %85, %82, %.thread60, %5, %79, %63, %62, %55, %44, %40, %32, %31, %17, %12
  %.0 = phi i32 [ -29184, %12 ], [ -29184, %17 ], [ -26368, %31 ], [ -25728, %32 ], [ -25984, %40 ], [ -29184, %44 ], [ -30592, %55 ], [ -30848, %62 ], [ 0, %63 ], [ -26240, %79 ], [ %6, %5 ], [ 0, %.thread60 ], [ 0, %82 ], [ 0, %85 ], [ 0, %64 ], [ -26240, %45 ], [ 0, %.thread ], [ -26240, %59 ]
  ret i32 %.0
}